MPASM 5.86                       PROGRAM.ASM   11-21-2019  22:38:20         PAGE  1


LOC  OBJECT CODE     LINE SOURCE TEXT
  VALUE

                      00001 ; Autores: Douglas A. C. Canevarollo & Gabriel A. P. Nunes
                      00002 ;
                      00003 ; Um sensor envia, a cada 2 segundos, uma informação composta por um valor entre
                      00004 ; 0 e 255 (em binário), lido na porta B. Esse sistema apresenta então esse valor
                      00005 ; na forma de três dígitos BCD, mostrados alternadamente na porta A (5ms cada).
                      00006 ;
                      00007 ; Microcontrolador PIC18F873A, clock de 4MHz.
                      00008     
                      00009         list        p=16F873A       ; Informa ao compilador o microcontrolador 
                      00010                                     ; utilizado.
                      00011     
                      00012 ;
                      00013     
                      00014         #include    <p16f873a.inc>  ; Inclui algumas configurações padrões do 
                      00001         LIST
                      00002 
                      00003 ;==========================================================================
                      00004 ; Build date : Oct 24 2019
                      00005 ;  MPASM PIC16F873A processor include
                      00006 ; 
                      00007 ;  (c) Copyright 1999-2019 Microchip Technology, All rights reserved
                      00008 ;==========================================================================
                      00009 
                      00527         LIST
                      00015                                     ; PIC18F873A.
                      00016     
                      00017 ; FUSE bits:
                      00018 ; Cristal oscilador de 4MHz, sem watchdog, com powerup e sem prot. de código.
2007   3FF1           00019         __CONFIG    _XT_OSC & _WDT_OFF & _PWRTE_ON & _CP_OFF
                      00020     
                      00021 ;
                      00022 ; Definição do vetor de reset.
                      00023         org         H'0000'     ; Origem do código principal.
0000   2???           00024         goto        start
                      00025         
                      00026 ; Definição de aliases.
                      00027 
                      00028         cblock      H'20'
                      00029     
  00000020            00030         TEMP                    ; Armazenará o valor recebido pela porta B.
  00000021            00031         HUNDRED                 ; Contador da centena.
  00000022            00032         DOZEN                   ; Contador da dezena.
  00000023            00033         UNITY                   ; Contador da unidade.
  00000024            00034         DELCUT1MS               ; Contador do timer de 1 ms.
  00000025            00035         DELCUT1S                ; Contador do timer de 1 s.
                      00036         
                      00037         endc
                      00038 
                      00039 ;
                      00040 ; Configurações dos bancos e portas de E/S.
0001                  00041 start:
0001   1683           00042         bsf         STATUS, RP0 ; Seleciona o banco 1.
0002   3006           00043         movlw       B'0110'
MPASM 5.86                       PROGRAM.ASM   11-21-2019  22:38:20         PAGE  2


LOC  OBJECT CODE     LINE SOURCE TEXT
  VALUE

Message[302]: Register in operand not in bank 0.  Ensure that bank bits are correct.
0003   009F           00044         movwf       ADCON1      ; Utiliza sinais digitais de entrada.
0004   30FF           00045         movlw       B'11111111'
Message[302]: Register in operand not in bank 0.  Ensure that bank bits are correct.
0005   0086           00046         movwf       TRISB       ; Todos os 8 bits da porta B serão usados como 
                      00047                                 ; entrada.
0006   3000           00048         movlw       B'00000000'
Message[302]: Register in operand not in bank 0.  Ensure that bank bits are correct.
0007   0085           00049         movwf       TRISA       ; Todos os 5 bits da porta A serão usados como 
                      00050                                 ; saída.
0008   1283           00051         bcf         STATUS, RP0 ; Seleciona o banco 0.
                      00052 ;
                      00053 ; Aplicação principal inicia agora.
0009                  00054 init:
0009   2???           00055         call        delay2s     ; Aguarda 2 segundos.
000A   0806           00056         movf        PORTB, 0    ; Armazena o valor de entrada no reg. W.
000B   00A0           00057         movwf       TEMP        ; Esse número é armazenado na porta B.
                      00058 ;
                      00059 ; Como não podemos utilizar D'-1', passamos o binário 1111 aos contadores como
                      00060 ; inicialização. Ao receber um incremento os 4 primeiros bits serão zerados 
                      00061 ; (1111 + 0001 = 1 0000). Portanto, quando incrementarmos, zeramos o bit 4 de 
                      00062 ; cada um para evitar problemas.
000C   300F           00063         movlw       B'1111'
000D   00A1           00064         movwf       HUNDRED
000E   00A2           00065         movwf       DOZEN
000F   00A3           00066         movwf       UNITY
                      00067 ;
                      00068 ; Ciclo de definição da centena.
                      00069 ; A cada ciclo, subtrai 100 do valor original e incrementa o contador até que
                      00070 ; ocorra um carry no registrador STATUS, ou seja, a centena já foi totalmente
                      00071 ; contada. Por exemplo, 255 entrará no laço 2 vezes e o contador será incremen-
                      00072 ; 2 vezes. Logo, o reg. da centena armazenará o valor 2.
0010                  00073 hund:
0010   0AA1           00074         incf        HUNDRED, 1  ; Incrementa o contador.
0011   1221           00075         bcf         HUNDRED, 4  ; Zera o bit onde o carry ocorreu.
0012   3064           00076         movlw       D'100'      ; W = 100.
0013   02A0           00077         subwf       TEMP, 1     ; Temp = Temp - W = Temp - 100.
0014   1803           00078         btfsc       STATUS, C   ; Se o bit de carry estiver falso, pula o laço.
0015   2???           00079         goto        hund
0016   3064           00080         movlw       D'100'
0017   07A0           00081         addwf       TEMP, 1     ; Soma 100 ao valor obtido na última subtração
                      00082                                 ; para retornar ao valor antes do carry (< 0).
                      00083 ;
                      00084 ; Ciclo de definição da dezena.
                      00085 ; Segue a mesma lógica da centena.
0018                  00086 doz:
0018   0AA2           00087         incf        DOZEN, 1
0019   1222           00088         bcf         DOZEN, 4
001A   300A           00089         movlw       D'10'
001B   02A0           00090         subwf       TEMP, 1
001C   1803           00091         btfsc       STATUS, C
001D   2???           00092         goto        doz
001E   300A           00093         movlw       D'10'
MPASM 5.86                       PROGRAM.ASM   11-21-2019  22:38:20         PAGE  3


LOC  OBJECT CODE     LINE SOURCE TEXT
  VALUE

001F   07A0           00094         addwf       TEMP, 1
                      00095 ;
                      00096 ; A unidade já estará definida no registrador TEMP.
0020   0820           00097         movf        TEMP, 0
0021   00A3           00098         movwf       UNITY
                      00099 ;
                      00100 ; Exibição alternada dos dígitos BCD na porta A.
0022   0821           00101         movf        HUNDRED, 0  ; W = centena.
0023   0085           00102         movwf       PORTA       ; Exibe o dígito da centena na porta A.
0024   2???           00103         call        delay5ms    ; Espera 5 ms.
                      00104 ;
0025   0822           00105         movf        DOZEN, 0    ; W = dezena.
0026   0085           00106         movwf       PORTA       ; Exibe o dígito da dezena na porta A.
0027   2???           00107         call        delay5ms
                      00108 ;
0028   0823           00109         movf        UNITY, 0    ; W = unidade.
0029   0085           00110         movwf       PORTA       ; Exibe o dígito da unidade na porta A.
002A   2???           00111         call        delay5ms
                      00112 ;
002B   2???           00113         goto        init        ; Volta ao início (espera de 2 s para o próximo 
                      00114                                 ; valor).
                      00115 ;
                      00116 ; Timer de 1 ms.
                      00117 ; 4MHz  -> 4.000.000 ciclos de software p/ segundo 
                      00118 ;       -> 2.000.000 ciclos de máquina p/ segundo
                      00119 ;       -> 2.000 ciclos de máquina p/ milisegundo.
                      00120 ;               
                      00121 ; 1 passada     -> 8 ciclos
                      00122 ; x passadas    -> 2.000 ciclos
                      00123 ;
                      00124 ; 2.000 ciclos = 8 passadas -> passadas = 2.000/8 -> 250 passadas necessárias.
002C                  00125 delay1ms:
002C   30FA           00126         movlw       D'250'
002D   00A4           00127         movwf       DELCUT1MS
                      00128 ; As seguintes instruções gastam 8 ciclos de máquina.
002E                  00129 del1ms:
002E   0000           00130         nop
002F   0000           00131         nop
0030   0000           00132         nop
0031   0000           00133         nop
0032   0000           00134         nop
0033   0BA4           00135         decfsz      DELCUT1MS, 1   ; Pula a instrução goto caso o contador seja 
                      00136                                    ; zerado.
0034   2???           00137         goto        del1ms
0035   0008           00138         return
                      00139 ;
                      00140 ; Timer de 5 ms.
                      00141 ; Chama 5 vezes o delay de 1 ms.
0036                  00142 delay5ms:
0036   2???           00143         call        delay1ms
0037   2???           00144         call        delay1ms
0038   2???           00145         call        delay1ms
0039   2???           00146         call        delay1ms
MPASM 5.86                       PROGRAM.ASM   11-21-2019  22:38:20         PAGE  4


LOC  OBJECT CODE     LINE SOURCE TEXT
  VALUE

003A   2???           00147         call        delay1ms
003B   0008           00148         return
                      00149 ;
                      00150 ; Timer de 1 s.
                      00151 ; Ao executar 2 vezes o timer de 5 ms, temos 10 ms. Executando 10 ms 100 vezes,
                      00152 ; temos 1 segundo (1.000 ms).
003C                  00153 delay1s:
003C   3064           00154         movlw       D'100'
003D   00A5           00155         movwf       DELCUT1S
003E                  00156 del1s:
003E   2???           00157         call        delay5ms
003F   2???           00158         call        delay5ms
0040   0BA5           00159         decfsz      DELCUT1S, 1
0041   2???           00160         goto        del1s
0042   0008           00161         return
                      00162 ;
                      00163 ; Timer de 2 s.
                      00164 ; Chama 2 vezes o delay de 1 s.
0043                  00165 delay2s:
0043   2???           00166         call        delay1s
0044   2???           00167         call        delay1s
0045   0008           00168         return
                      00169         
3FF1                  00170         end                         ; Fim de programa.
MPASM 5.86                       PROGRAM.ASM   11-21-2019  22:38:20         PAGE  5


SYMBOL TABLE
  LABEL                             VALUE 

ACKDT                             00000005
ACKEN                             00000004
ACKSTAT                           00000006
ADCON0                            0000001F
ADCON1                            0000009F
ADCS0                             00000006
ADCS1                             00000007
ADCS2                             00000006
ADDEN                             00000003
ADFM                              00000007
ADIE                              00000006
ADIF                              00000006
ADON                              00000000
ADRESH                            0000001E
ADRESL                            0000009E
BCLIE                             00000003
BCLIF                             00000003
BF                                00000000
BRGH                              00000002
C                                 00000000
C1INV                             00000004
C1OUT                             00000006
C2INV                             00000005
C2OUT                             00000007
CCP1CON                           00000017
CCP1IE                            00000002
CCP1IF                            00000002
CCP1M0                            00000000
CCP1M1                            00000001
CCP1M2                            00000002
CCP1M3                            00000003
CCP1X                             00000005
CCP1Y                             00000004
CCP2CON                           0000001D
CCP2IE                            00000000
CCP2IF                            00000000
CCP2M0                            00000000
CCP2M1                            00000001
CCP2M2                            00000002
CCP2M3                            00000003
CCP2X                             00000005
CCP2Y                             00000004
CCPR1                             00000015
CCPR1H                            00000016
CCPR1L                            00000015
CCPR2                             0000001B
CCPR2H                            0000001C
CCPR2L                            0000001B
CHS0                              00000003
CHS1                              00000004
CHS2                              00000005
CIS                               00000003
CKE                               00000006
MPASM 5.86                       PROGRAM.ASM   11-21-2019  22:38:20         PAGE  6


SYMBOL TABLE
  LABEL                             VALUE 

CKP                               00000004
CM0                               00000000
CM1                               00000001
CM2                               00000002
CMCON                             0000009C
CMIE                              00000006
CMIF                              00000006
CREN                              00000004
CSRC                              00000007
CVR0                              00000000
CVR1                              00000001
CVR2                              00000002
CVR3                              00000003
CVRCON                            0000009D
CVREN                             00000007
CVROE                             00000006
CVRR                              00000005
D                                 00000005
DATA_ADDRESS                      00000005
DC                                00000001
DELCUT1MS                         00000024
DELCUT1S                          00000025
DOZEN                             00000022
D_A                               00000005
D_NOT_A                           00000005
EEADR                             0000010D
EEADRH                            0000010F
EECON1                            0000018C
EECON2                            0000018D
EEDATA                            0000010C
EEDATH                            0000010E
EEIE                              00000004
EEIF                              00000004
EEPGD                             00000007
F                                 00000001
FERR                              00000002
FSR                               00000004
GCEN                              00000007
GIE                               00000007
GO                                00000002
GO_DONE                           00000002
GO_NOT_DONE                       00000002
HUNDRED                           00000021
I2C_DATA                          00000005
I2C_READ                          00000002
I2C_START                         00000003
I2C_STOP                          00000004
INDF                              00000000
INTCON                            0000000B
INTE                              00000004
INTEDG                            00000006
INTF                              00000001
IRP                               00000007
MPASM 5.86                       PROGRAM.ASM   11-21-2019  22:38:20         PAGE  7


SYMBOL TABLE
  LABEL                             VALUE 

NOT_A                             00000005
NOT_ADDRESS                       00000005
NOT_BO                            00000000
NOT_BOR                           00000000
NOT_DONE                          00000002
NOT_PD                            00000003
NOT_POR                           00000001
NOT_RBPU                          00000007
NOT_RC8                           00000006
NOT_T1SYNC                        00000002
NOT_TO                            00000004
NOT_TX8                           00000006
NOT_W                             00000002
NOT_WRITE                         00000002
OERR                              00000001
OPTION_REG                        00000081
P                                 00000004
PCFG0                             00000000
PCFG1                             00000001
PCFG2                             00000002
PCFG3                             00000003
PCL                               00000002
PCLATH                            0000000A
PCON                              0000008E
PEIE                              00000006
PEN                               00000002
PIE1                              0000008C
PIE2                              0000008D
PIR1                              0000000C
PIR2                              0000000D
PORTA                             00000005
PORTB                             00000006
PORTC                             00000007
PR2                               00000092
PS0                               00000000
PS1                               00000001
PS2                               00000002
PSA                               00000003
R                                 00000002
RA0                               00000000
RA1                               00000001
RA2                               00000002
RA3                               00000003
RA4                               00000004
RA5                               00000005
RB0                               00000000
RB1                               00000001
RB2                               00000002
RB3                               00000003
RB4                               00000004
RB5                               00000005
RB6                               00000006
RB7                               00000007
MPASM 5.86                       PROGRAM.ASM   11-21-2019  22:38:20         PAGE  8


SYMBOL TABLE
  LABEL                             VALUE 

RBIE                              00000003
RBIF                              00000000
RC0                               00000000
RC1                               00000001
RC2                               00000002
RC3                               00000003
RC4                               00000004
RC5                               00000005
RC6                               00000006
RC7                               00000007
RC8_9                             00000006
RC9                               00000006
RCD8                              00000000
RCEN                              00000003
RCIE                              00000005
RCIF                              00000005
RCREG                             0000001A
RCSTA                             00000018
RD                                00000000
READ_WRITE                        00000002
RP0                               00000005
RP1                               00000006
RSEN                              00000001
RX9                               00000006
RX9D                              00000000
R_NOT_W                           00000002
R_W                               00000002
S                                 00000003
SEN                               00000000
SMP                               00000007
SPBRG                             00000099
SPEN                              00000007
SREN                              00000005
SSPADD                            00000093
SSPBUF                            00000013
SSPCON                            00000014
SSPCON2                           00000091
SSPEN                             00000005
SSPIE                             00000003
SSPIF                             00000003
SSPM0                             00000000
SSPM1                             00000001
SSPM2                             00000002
SSPM3                             00000003
SSPOV                             00000006
SSPSTAT                           00000094
STATUS                            00000003
SYNC                              00000004
T0CS                              00000005
T0IE                              00000005
T0IF                              00000002
T0SE                              00000004
T1CKPS0                           00000004
MPASM 5.86                       PROGRAM.ASM   11-21-2019  22:38:20         PAGE  9


SYMBOL TABLE
  LABEL                             VALUE 

T1CKPS1                           00000005
T1CON                             00000010
T1INSYNC                          00000002
T1OSCEN                           00000003
T1SYNC                            00000002
T2CKPS0                           00000000
T2CKPS1                           00000001
T2CON                             00000012
TEMP                              00000020
TMR0                              00000001
TMR0IE                            00000005
TMR0IF                            00000002
TMR1                              0000000E
TMR1CS                            00000001
TMR1H                             0000000F
TMR1IE                            00000000
TMR1IF                            00000000
TMR1L                             0000000E
TMR1ON                            00000000
TMR2                              00000011
TMR2IE                            00000001
TMR2IF                            00000001
TMR2ON                            00000002
TOUTPS0                           00000003
TOUTPS1                           00000004
TOUTPS2                           00000005
TOUTPS3                           00000006
TRISA                             00000085
TRISA0                            00000000
TRISA1                            00000001
TRISA2                            00000002
TRISA3                            00000003
TRISA4                            00000004
TRISA5                            00000005
TRISB                             00000086
TRISB0                            00000000
TRISB1                            00000001
TRISB2                            00000002
TRISB3                            00000003
TRISB4                            00000004
TRISB5                            00000005
TRISB6                            00000006
TRISB7                            00000007
TRISC                             00000087
TRISC0                            00000000
TRISC1                            00000001
TRISC2                            00000002
TRISC3                            00000003
TRISC4                            00000004
TRISC5                            00000005
TRISC6                            00000006
TRISC7                            00000007
TRMT                              00000001
MPASM 5.86                       PROGRAM.ASM   11-21-2019  22:38:20         PAGE 10


SYMBOL TABLE
  LABEL                             VALUE 

TX8_9                             00000006
TX9                               00000006
TX9D                              00000000
TXD8                              00000000
TXEN                              00000005
TXIE                              00000004
TXIF                              00000004
TXREG                             00000019
TXSTA                             00000098
UA                                00000001
UNITY                             00000023
W                                 00000000
WCOL                              00000007
WR                                00000001
WREN                              00000002
WRERR                             00000003
Z                                 00000002
_BODEN_OFF                        00003FBF
_BODEN_ON                         00003FFF
_BOREN_OFF                        00003FBF
_BOREN_ON                         00003FFF
_CONFIG                           00002007
_CPD_OFF                          00003FFF
_CPD_ON                           00003EFF
_CP_ALL                           00001FFF
_CP_OFF                           00003FFF
_CP_ON                            00001FFF
_DEBUG_OFF                        00003FFF
_DEBUG_ON                         000037FF
_DEVID1                           00002006
_FOSC_EXTRC                       00003FFF
_FOSC_HS                          00003FFE
_FOSC_LP                          00003FFC
_FOSC_XT                          00003FFD
_HS_OSC                           00003FFE
_IDLOC0                           00002000
_IDLOC1                           00002001
_IDLOC2                           00002002
_IDLOC3                           00002003
_LP_OSC                           00003FFC
_LVP_OFF                          00003F7F
_LVP_ON                           00003FFF
_PWRTE_OFF                        00003FFF
_PWRTE_ON                         00003FF7
_RC_OSC                           00003FFF
_WDTE_OFF                         00003FFB
_WDTE_ON                          00003FFF
_WDT_OFF                          00003FFB
_WDT_ON                           00003FFF
_WRT_1FOURTH                      00003BFF
_WRT_256                          00003DFF
_WRT_HALF                         000039FF
_WRT_OFF                          00003FFF
MPASM 5.86                       PROGRAM.ASM   11-21-2019  22:38:20         PAGE 11


SYMBOL TABLE
  LABEL                             VALUE 

_XT_OSC                           00003FFD
__16F873A                         00000001
__DEBUG                           
__MPLAB_DEBUGGER_SIMULATOR        1
del1ms                            0000002E
del1s                             0000003E
delay1ms                          0000002C
delay1s                           0000003C
delay2s                           00000043
delay5ms                          00000036
doz                               00000018
hund                              00000010
init                              00000009
start                             00000001

Errors   :     0
Warnings :     0 reported,     0 suppressed
Messages :     3 reported,     0 suppressed

